target datalayout = "e-m:e-p270:32:32-p271:32:32-p272:64:64-i64:64-i128:128-f80:128-n8:16:32:64-S128"
target triple = "x86_64-pc-linux-gnu"

%struct.decNumber = type { i32, i32, i8, [1 x i16] }
%struct.decContext = type { i32, i32, i32, i32, i32, i32, i8 }

; Function Attrs: nounwind uwtable
define dso_local i32 @decNumberIsNormal(ptr noundef %0, ptr noundef %1) #0 {
  %3 = alloca i32, align 4
  %4 = alloca ptr, align 8
  %5 = alloca ptr, align 8
  %6 = alloca i32, align 4
  %7 = alloca i32, align 4
  store ptr %0, ptr %4, align 8, !tbaa !4
  store ptr %1, ptr %5, align 8, !tbaa !4
  call void @llvm.lifetime.start.p0(i64 4, ptr %6) #7
  %8 = load ptr, ptr %4, align 8, !tbaa !4
  %9 = getelementptr inbounds nuw %struct.decNumber, ptr %8, i32 0, i32 2
  %10 = load i8, ptr %9, align 4, !tbaa !10
  %11 = zext i8 %10 to i32
  %12 = and i32 %11, 112
  %13 = icmp ne i32 %12, 0
  br i1 %13, label %14, label %15

14:                                               ; preds = %2
  store i32 0, ptr %3, align 4
  store i32 1, ptr %7, align 4
  br label %51

15:                                               ; preds = %2
  %16 = load ptr, ptr %4, align 8, !tbaa !4
  %17 = getelementptr inbounds nuw %struct.decNumber, ptr %16, i32 0, i32 3
  %18 = getelementptr inbounds [1 x i16], ptr %17, i64 0, i64 0
  %19 = load i16, ptr %18, align 2, !tbaa !14
  %20 = zext i16 %19 to i32
  %21 = icmp eq i32 %20, 0
  br i1 %21, label %22, label %35

22:                                               ; preds = %15
  %23 = load ptr, ptr %4, align 8, !tbaa !4
  %24 = getelementptr inbounds nuw %struct.decNumber, ptr %23, i32 0, i32 0
  %25 = load i32, ptr %24, align 4, !tbaa !18
  %26 = icmp eq i32 %25, 1
  br i1 %26, label %27, label %35

27:                                               ; preds = %22
  %28 = load ptr, ptr %4, align 8, !tbaa !4
  %29 = getelementptr inbounds nuw %struct.decNumber, ptr %28, i32 0, i32 2
  %30 = load i8, ptr %29, align 4, !tbaa !10
  %31 = zext i8 %30 to i32
  %32 = and i32 %31, 112
  %33 = icmp eq i32 %32, 0
  br i1 %33, label %34, label %35

34:                                               ; preds = %27
  store i32 0, ptr %3, align 4
  store i32 1, ptr %7, align 4
  br label %51

35:                                               ; preds = %27, %22, %15
  %36 = load ptr, ptr %4, align 8, !tbaa !4
  %37 = getelementptr inbounds nuw %struct.decNumber, ptr %36, i32 0, i32 1
  %38 = load i32, ptr %37, align 4, !tbaa !19
  %39 = load ptr, ptr %4, align 8, !tbaa !4
  %40 = getelementptr inbounds nuw %struct.decNumber, ptr %39, i32 0, i32 0
  %41 = load i32, ptr %40, align 4, !tbaa !18
  %42 = add nsw i32 %38, %41
  %43 = sub nsw i32 %42, 1
  store i32 %43, ptr %6, align 4, !tbaa !8
  %44 = load i32, ptr %6, align 4, !tbaa !8
  %45 = load ptr, ptr %5, align 8, !tbaa !4
  %46 = getelementptr inbounds nuw %struct.decContext, ptr %45, i32 0, i32 2
  %47 = load i32, ptr %46, align 4, !tbaa !38
  %48 = icmp slt i32 %44, %47
  br i1 %48, label %49, label %50

49:                                               ; preds = %35
  store i32 0, ptr %3, align 4
  store i32 1, ptr %7, align 4
  br label %51

50:                                               ; preds = %35
  store i32 1, ptr %3, align 4
  store i32 1, ptr %7, align 4
  br label %51

51:                                               ; preds = %50, %49, %34, %14
  call void @llvm.lifetime.end.p0(i64 4, ptr %6) #7
  %52 = load i32, ptr %3, align 4
  ret i32 %52
}

; Function Attrs: nounwind uwtable
define dso_local i32 @decNumberClass(ptr noundef %0, ptr noundef %1) #0 {
  %3 = alloca i32, align 4
  %4 = alloca ptr, align 8
  %5 = alloca ptr, align 8
  store ptr %0, ptr %4, align 8, !tbaa !4
  store ptr %1, ptr %5, align 8, !tbaa !4
  %6 = load ptr, ptr %4, align 8, !tbaa !4
  %7 = getelementptr inbounds nuw %struct.decNumber, ptr %6, i32 0, i32 2
  %8 = load i8, ptr %7, align 4, !tbaa !10
  %9 = zext i8 %8 to i32
  %10 = and i32 %9, 112
  %11 = icmp ne i32 %10, 0
  br i1 %11, label %12, label %37

12:                                               ; preds = %2
  %13 = load ptr, ptr %4, align 8, !tbaa !4
  %14 = getelementptr inbounds nuw %struct.decNumber, ptr %13, i32 0, i32 2
  %15 = load i8, ptr %14, align 4, !tbaa !10
  %16 = zext i8 %15 to i32
  %17 = and i32 %16, 32
  %18 = icmp ne i32 %17, 0
  br i1 %18, label %19, label %20

19:                                               ; preds = %12
  store i32 1, ptr %3, align 4
  br label %88

20:                                               ; preds = %12
  %21 = load ptr, ptr %4, align 8, !tbaa !4
  %22 = getelementptr inbounds nuw %struct.decNumber, ptr %21, i32 0, i32 2
  %23 = load i8, ptr %22, align 4, !tbaa !10
  %24 = zext i8 %23 to i32
  %25 = and i32 %24, 16
  %26 = icmp ne i32 %25, 0
  br i1 %26, label %27, label %28

27:                                               ; preds = %20
  store i32 0, ptr %3, align 4
  br label %88

28:                                               ; preds = %20
  %29 = load ptr, ptr %4, align 8, !tbaa !4
  %30 = getelementptr inbounds nuw %struct.decNumber, ptr %29, i32 0, i32 2
  %31 = load i8, ptr %30, align 4, !tbaa !10
  %32 = zext i8 %31 to i32
  %33 = and i32 %32, 128
  %34 = icmp ne i32 %33, 0
  br i1 %34, label %35, label %36

35:                                               ; preds = %28
  store i32 2, ptr %3, align 4
  br label %88

36:                                               ; preds = %28
  store i32 9, ptr %3, align 4
  br label %88

37:                                               ; preds = %2
  %38 = load ptr, ptr %4, align 8, !tbaa !4
  %39 = load ptr, ptr %5, align 8, !tbaa !4
  %40 = call i32 @decNumberIsNormal(ptr noundef %38, ptr noundef %39)
  %41 = icmp ne i32 %40, 0
  br i1 %41, label %42, label %51

42:                                               ; preds = %37
  %43 = load ptr, ptr %4, align 8, !tbaa !4
  %44 = getelementptr inbounds nuw %struct.decNumber, ptr %43, i32 0, i32 2
  %45 = load i8, ptr %44, align 4, !tbaa !10
  %46 = zext i8 %45 to i32
  %47 = and i32 %46, 128
  %48 = icmp ne i32 %47, 0
  br i1 %48, label %49, label %50

49:                                               ; preds = %42
  store i32 3, ptr %3, align 4
  br label %88

50:                                               ; preds = %42
  store i32 8, ptr %3, align 4
  br label %88

51:                                               ; preds = %37
  %52 = load ptr, ptr %4, align 8, !tbaa !4
  %53 = getelementptr inbounds nuw %struct.decNumber, ptr %52, i32 0, i32 3
  %54 = getelementptr inbounds [1 x i16], ptr %53, i64 0, i64 0
  %55 = load i16, ptr %54, align 2, !tbaa !14
  %56 = zext i16 %55 to i32
  %57 = icmp eq i32 %56, 0
  br i1 %57, label %58, label %79

58:                                               ; preds = %51
  %59 = load ptr, ptr %4, align 8, !tbaa !4
  %60 = getelementptr inbounds nuw %struct.decNumber, ptr %59, i32 0, i32 0
  %61 = load i32, ptr %60, align 4, !tbaa !18
  %62 = icmp eq i32 %61, 1
  br i1 %62, label %63, label %79

63:                                               ; preds = %58
  %64 = load ptr, ptr %4, align 8, !tbaa !4
  %65 = getelementptr inbounds nuw %struct.decNumber, ptr %64, i32 0, i32 2
  %66 = load i8, ptr %65, align 4, !tbaa !10
  %67 = zext i8 %66 to i32
  %68 = and i32 %67, 112
  %69 = icmp eq i32 %68, 0
  br i1 %69, label %70, label %79

70:                                               ; preds = %63
  %71 = load ptr, ptr %4, align 8, !tbaa !4
  %72 = getelementptr inbounds nuw %struct.decNumber, ptr %71, i32 0, i32 2
  %73 = load i8, ptr %72, align 4, !tbaa !10
  %74 = zext i8 %73 to i32
  %75 = and i32 %74, 128
  %76 = icmp ne i32 %75, 0
  br i1 %76, label %77, label %78

77:                                               ; preds = %70
  store i32 5, ptr %3, align 4
  br label %88

78:                                               ; preds = %70
  store i32 6, ptr %3, align 4
  br label %88

79:                                               ; preds = %63, %58, %51
  %80 = load ptr, ptr %4, align 8, !tbaa !4
  %81 = getelementptr inbounds nuw %struct.decNumber, ptr %80, i32 0, i32 2
  %82 = load i8, ptr %81, align 4, !tbaa !10
  %83 = zext i8 %82 to i32
  %84 = and i32 %83, 128
  %85 = icmp ne i32 %84, 0
  br i1 %85, label %86, label %87

86:                                               ; preds = %79
  store i32 4, ptr %3, align 4
  br label %88

87:                                               ; preds = %79
  store i32 7, ptr %3, align 4
  br label %88

88:                                               ; preds = %87, %86, %78, %77, %50, %49, %36, %35, %27, %19
  %89 = load i32, ptr %3, align 4
  ret i32 %89
}