; Function Attrs: mustprogress nofree norecurse nosync nounwind willreturn memory(argmem: read) uwtable
define dso_local range(i32 0, 10) i32 @decNumberClass(ptr noundef readonly captures(none) %0, ptr noundef readonly captures(none) %1) local_unnamed_addr #11 {
  %3 = getelementptr inbounds nuw i8, ptr %0, i64 8
  %4 = load i8, ptr %3, align 4, !tbaa !4
  %5 = zext i8 %4 to i32
  %6 = and i32 %5, 112
  %.not = icmp eq i32 %6, 0
  br i1 %.not, label %12, label %7

7:                                                ; preds = %2
  %8 = and i32 %5, 32
  %.not16 = icmp eq i32 %8, 0
  br i1 %.not16, label %9, label %28

9:                                                ; preds = %7
  %10 = and i32 %5, 16
  %.not17 = icmp eq i32 %10, 0
  br i1 %.not17, label %11, label %28

11:                                               ; preds = %9
  %.not18 = icmp sgt i8 %4, -1
  %. = select i1 %.not18, i32 9, i32 2
  br label %28

12:                                               ; preds = %2
  %13 = and i8 %4, 112
  %.not.i = icmp ne i8 %13, 0
  %.phi.trans.insert = getelementptr inbounds nuw i8, ptr %0, i64 10
  %.pre = load i16, ptr %.phi.trans.insert, align 2, !tbaa !11
  br i1 %.not.i, label %decNumberIsNormal.exit.thread, label %14

14:                                               ; preds = %12
  %15 = icmp eq i16 %.pre, 0
  %.pre.i = load i32, ptr %0, align 4, !tbaa !10
  %16 = icmp eq i32 %.pre.i, 1
  %or.cond.i = select i1 %15, i1 %16, i1 false
  br i1 %or.cond.i, label %decNumberIsNormal.exit.thread.thread, label %decNumberIsNormal.exit

decNumberIsNormal.exit:                           ; preds = %14
  %17 = getelementptr inbounds nuw i8, ptr %0, i64 4
  %18 = load i32, ptr %17, align 4, !tbaa !9
  %19 = add nsw i32 %18, %.pre.i
  %20 = getelementptr inbounds nuw i8, ptr %1, i64 8
  %21 = load i32, ptr %20, align 4, !tbaa !30
  %.not9.i.not = icmp sgt i32 %19, %21
  br i1 %.not9.i.not, label %22, label %decNumberIsNormal.exit.thread

22:                                               ; preds = %decNumberIsNormal.exit
  %.not15 = icmp sgt i8 %4, -1
  %.19 = select i1 %.not15, i32 8, i32 3
  br label %28

decNumberIsNormal.exit.thread:                    ; preds = %12, %decNumberIsNormal.exit
  %23 = icmp eq i16 %.pre, 0
  br i1 %23, label %decNumberIsNormal.exit.thread.thread, label %27

decNumberIsNormal.exit.thread.thread:             ; preds = %14, %decNumberIsNormal.exit.thread
  %24 = load i32, ptr %0, align 4, !tbaa !10
  %25 = icmp ne i32 %24, 1
  %brmerge = or i1 %.not.i, %25
  br i1 %brmerge, label %27, label %26

26:                                               ; preds = %decNumberIsNormal.exit.thread.thread
  %.not14 = icmp sgt i8 %4, -1
  %.20 = select i1 %.not14, i32 6, i32 5
  br label %28

27:                                               ; preds = %decNumberIsNormal.exit.thread.thread, %decNumberIsNormal.exit.thread
  %.not13 = icmp sgt i8 %4, -1
  %.21 = select i1 %.not13, i32 7, i32 4
  br label %28

28:                                               ; preds = %27, %26, %22, %11, %9, %7
  %.0 = phi i32 [ 1, %7 ], [ 0, %9 ], [ %., %11 ], [ %.19, %22 ], [ %.20, %26 ], [ %.21, %27 ]
  ret i32 %.0
}